; Function Attrs: nounwind sspstrong uwtable
define hidden noundef i64 @rb_hash_set_pair(i64 noundef returned %0, i64 noundef %1) local_unnamed_addr #0 {
  %3 = tail call i64 @rb_check_array_type(i64 noundef %1) #28
  %4 = icmp eq i64 %3, 4
  br i1 %4, label %5, label %8

5:                                                ; preds = %2
  %6 = load i64, ptr @rb_eTypeError, align 8, !tbaa !7
  %7 = tail call ptr @rb_builtin_class_name(i64 noundef %1) #28
  tail call void (i64, ptr, ...) @rb_raise(i64 noundef %6, ptr noundef nonnull @.str.6, ptr noundef %7) #30
  unreachable

8:                                                ; preds = %2
  %9 = inttoptr i64 %3 to ptr
  %10 = load i64, ptr %9, align 8, !tbaa !11
  %11 = and i64 %10, 8192
  %.not.i = icmp eq i64 %11, 0
  br i1 %.not.i, label %rb_array_len.exit, label %rb_array_len.exit.thread

rb_array_len.exit:                                ; preds = %8
  %12 = getelementptr inbounds nuw i8, ptr %9, i64 16
  %13 = load i64, ptr %12, align 8, !tbaa !22
  %.not = icmp eq i64 %13, 2
  br i1 %.not, label %19, label %16

rb_array_len.exit.thread:                         ; preds = %8
  %14 = lshr i64 %10, 15
  %15 = and i64 %14, 127
  %.not13 = icmp eq i64 %15, 2
  br i1 %.not13, label %.thread, label %16

16:                                               ; preds = %rb_array_len.exit.thread, %rb_array_len.exit
  %.0.i14 = phi i64 [ %15, %rb_array_len.exit.thread ], [ %13, %rb_array_len.exit ]
  %17 = load i64, ptr @rb_eArgError, align 8, !tbaa !7
  tail call void (i64, ptr, ...) @rb_raise(i64 noundef %17, ptr noundef nonnull @.str.7, i64 noundef %.0.i14) #30
  unreachable

.thread:                                          ; preds = %rb_array_len.exit.thread
  %18 = getelementptr inbounds nuw i8, ptr %9, i64 16
  br label %RARRAY_AREF.exit11

19:                                               ; preds = %rb_array_len.exit
  %20 = getelementptr inbounds nuw i8, ptr %9, i64 32
  %21 = load ptr, ptr %20, align 8, !tbaa !22
  br label %RARRAY_AREF.exit11

RARRAY_AREF.exit11:                               ; preds = %.thread, %19
  %.in = phi ptr [ %18, %.thread ], [ %21, %19 ]
  %22 = load i64, ptr %.in, align 8, !tbaa !7
  %23 = getelementptr i8, ptr %.in, i64 8
  %24 = load i64, ptr %23, align 8, !tbaa !7
  %25 = tail call i64 @rb_hash_aset(i64 noundef %0, i64 noundef %22, i64 noundef %24)
  ret i64 %0
}